; Function Attrs: mustprogress uwtable
define void @_ZN9grpc_core16PromiseBasedCall14FailCompletionERKNS0_10CompletionENS_14SourceLocationE(ptr noundef nonnull align 8 dereferenceable(1096) %this, ptr noundef nonnull align 1 dereferenceable(1) %completion, ptr %location.coerce0, i32 %location.coerce1) local_unnamed_addr #3 align 2 personality ptr @__gxx_personality_v0 {
entry:
  %ref.tmp = alloca %"class.std::__cxx11::basic_string", align 8
  %ref.tmp5 = alloca %"class.std::__cxx11::basic_string", align 8
  %0 = load atomic i8, ptr getelementptr inbounds (%"class.grpc_core::TraceFlag", ptr @grpc_call_trace, i64 0, i32 2, i32 0, i32 0) monotonic, align 8
  %1 = and i8 %0, 1
  %tobool.i.i.i.not = icmp eq i8 %1, 0
  br i1 %tobool.i.i.i.not, label %if.end, label %if.then

if.then:                                          ; preds = %entry
  %add.ptr = getelementptr inbounds i8, ptr %this, i64 112
  %vtable = load ptr, ptr %add.ptr, align 8
  %vfn = getelementptr inbounds i8, ptr %vtable, i64 56
  %2 = load ptr, ptr %vfn, align 8
  call void %2(ptr nonnull sret(%"class.std::__cxx11::basic_string") align 8 %ref.tmp, ptr noundef nonnull align 8 dereferenceable(8) %add.ptr)
  %call4 = call noundef ptr @_ZNKSt7__cxx1112basic_stringIcSt11char_traitsIcESaIcEE5c_strEv(ptr noundef nonnull align 8 dereferenceable(32) %ref.tmp) #28
  invoke void @_ZNK9grpc_core16PromiseBasedCall16CompletionStringB5cxx11ERKNS0_10CompletionE(ptr nonnull sret(%"class.std::__cxx11::basic_string") align 8 %ref.tmp5, ptr noundef nonnull align 8 dereferenceable(1096) %this, ptr noundef nonnull align 1 dereferenceable(1) %completion)
          to label %invoke.cont unwind label %lpad

invoke.cont:                                      ; preds = %if.then
  %call6 = call noundef ptr @_ZNKSt7__cxx1112basic_stringIcSt11char_traitsIcESaIcEE5c_strEv(ptr noundef nonnull align 8 dereferenceable(32) %ref.tmp5) #28
  invoke void (ptr, i32, i32, ptr, ...) @gpr_log(ptr noundef %location.coerce0, i32 noundef %location.coerce1, i32 noundef 2, ptr noundef nonnull @.str.50, ptr noundef %call4, ptr noundef %call6)
          to label %invoke.cont8 unwind label %lpad7

invoke.cont8:                                     ; preds = %invoke.cont
  call void @_ZNSt7__cxx1112basic_stringIcSt11char_traitsIcESaIcEED1Ev(ptr noundef nonnull align 8 dereferenceable(32) %ref.tmp5) #28
  call void @_ZNSt7__cxx1112basic_stringIcSt11char_traitsIcESaIcEED1Ev(ptr noundef nonnull align 8 dereferenceable(32) %ref.tmp) #28
  br label %if.end

lpad:                                             ; preds = %if.then
  %3 = landingpad { ptr, i32 }
          cleanup
  br label %ehcleanup

lpad7:                                            ; preds = %invoke.cont
  %4 = landingpad { ptr, i32 }
          cleanup
  call void @_ZNSt7__cxx1112basic_stringIcSt11char_traitsIcESaIcEED1Ev(ptr noundef nonnull align 8 dereferenceable(32) %ref.tmp5) #28
  br label %ehcleanup

ehcleanup:                                        ; preds = %lpad7, %lpad
  %.pn = phi { ptr, i32 } [ %4, %lpad7 ], [ %3, %lpad ]
  call void @_ZNSt7__cxx1112basic_stringIcSt11char_traitsIcESaIcEED1Ev(ptr noundef nonnull align 8 dereferenceable(32) %ref.tmp) #28
  resume { ptr, i32 } %.pn

if.end:                                           ; preds = %invoke.cont8, %entry
  %completion_info_ = getelementptr inbounds i8, ptr %this, i64 536
  %5 = load i8, ptr %completion, align 1
  %idxprom = zext i8 %5 to i64
  %arrayidx = getelementptr inbounds [6 x %"union.grpc_core::PromiseBasedCall::CompletionInfo"], ptr %completion_info_, i64 0, i64 %idxprom
  %6 = atomicrmw or ptr %arrayidx, i32 -2147483648 monotonic, align 4
  ret void
}